; Function Attrs: nounwind uwtable
define dso_local ptr @PyPickleBuffer_GetBuffer(ptr noundef readonly %0) local_unnamed_addr #0 {
  %2 = getelementptr i8, ptr %0, i64 8
  %.val6 = load ptr, ptr %2, align 8, !tbaa !26
  %.not = icmp eq ptr %.val6, @PyPickleBuffer_Type
  br i1 %.not, label %8, label %3

3:                                                ; preds = %1
  %4 = load ptr, ptr @PyExc_TypeError, align 8, !tbaa !27
  %5 = getelementptr inbounds nuw i8, ptr %.val6, i64 24
  %6 = load ptr, ptr %5, align 8, !tbaa !28
  %7 = tail call ptr (ptr, ptr, ...) @PyErr_Format(ptr noundef %4, ptr noundef nonnull @.str, ptr noundef %6) #5
  br label %16

8:                                                ; preds = %1
  %9 = getelementptr inbounds nuw i8, ptr %0, i64 24
  %10 = load ptr, ptr %9, align 8, !tbaa !20
  %11 = icmp eq ptr %10, null
  br i1 %11, label %12, label %14

12:                                               ; preds = %8
  %13 = load ptr, ptr @PyExc_ValueError, align 8, !tbaa !27
  tail call void @PyErr_SetString(ptr noundef %13, ptr noundef nonnull @.str.1) #5
  br label %16

14:                                               ; preds = %8
  %15 = getelementptr inbounds nuw i8, ptr %0, i64 16
  br label %16

16:                                               ; preds = %14, %12, %3
  %.0 = phi ptr [ null, %12 ], [ %15, %14 ], [ null, %3 ]
  ret ptr %.0
}